target datalayout = "e-m:e-p270:32:32-p271:32:32-p272:64:64-i64:64-i128:128-f80:128-n8:16:32:64-S128"
target triple = "x86_64-unknown-linux-gnu"

%"struct.facebook::hermes::tracing::SynthTrace::Record" = type { ptr, %"class.std::chrono::duration" }
%"class.std::chrono::duration" = type { i64 }
%"struct.facebook::hermes::tracing::SynthTrace::SetExternalMemoryPressureRecord" = type { %"struct.facebook::hermes::tracing::SynthTrace::Record", i64, i64 }

@_ZTIN8facebook6hermes7tracing10SynthTrace6RecordE = hidden constant { ptr, ptr } { ptr getelementptr inbounds (ptr, ptr @_ZTVN10__cxxabiv117__class_type_infoE, i64 2), ptr @_ZTSN8facebook6hermes7tracing10SynthTrace6RecordE }, align 8

; Function Attrs: mustprogress uwtable
define linkonce_odr hidden noundef zeroext i1 @_ZNK8facebook6hermes7tracing10SynthTrace6RecordeqERKS3_(ptr noundef nonnull align 8 dereferenceable(16) %this, ptr noundef nonnull align 8 dereferenceable(16) %that) unnamed_addr #1 comdat align 2 {
entry:
  %this.addr = alloca ptr, align 8
  %that.addr = alloca ptr, align 8
  store ptr %this, ptr %this.addr, align 8
  store ptr %that, ptr %that.addr, align 8
  %this1 = load ptr, ptr %this.addr, align 8
  %vtable = load ptr, ptr %this1, align 8
  %vfn = getelementptr inbounds ptr, ptr %vtable, i64 2
  %0 = load ptr, ptr %vfn, align 8
  %call = call noundef i32 %0(ptr noundef nonnull align 8 dereferenceable(16) %this1)
  %1 = load ptr, ptr %that.addr, align 8
  %vtable2 = load ptr, ptr %1, align 8
  %vfn3 = getelementptr inbounds ptr, ptr %vtable2, i64 2
  %2 = load ptr, ptr %vfn3, align 8
  %call4 = call noundef i32 %2(ptr noundef nonnull align 8 dereferenceable(16) %1)
  %cmp = icmp eq i32 %call, %call4
  ret i1 %cmp
}

; Function Attrs: mustprogress uwtable
define hidden noundef zeroext i1 @_ZNK8facebook6hermes7tracing10SynthTrace31SetExternalMemoryPressureRecordeqERKNS2_6RecordE(ptr noundef nonnull align 8 dereferenceable(32) %this, ptr noundef nonnull align 8 dereferenceable(16) %that) unnamed_addr #1 align 2 {
entry:
  %retval = alloca i1, align 1
  %this.addr = alloca ptr, align 8
  %that.addr = alloca ptr, align 8
  %thatCasted = alloca ptr, align 8
  store ptr %this, ptr %this.addr, align 8
  store ptr %that, ptr %that.addr, align 8
  %this1 = load ptr, ptr %this.addr, align 8
  %0 = load ptr, ptr %that.addr, align 8
  %call = call noundef zeroext i1 @_ZNK8facebook6hermes7tracing10SynthTrace6RecordeqERKS3_(ptr noundef nonnull align 8 dereferenceable(16) %this1, ptr noundef nonnull align 8 dereferenceable(16) %0)
  br i1 %call, label %if.end, label %if.then

if.then:                                          ; preds = %entry
  store i1 false, ptr %retval, align 1
  br label %return

if.end:                                           ; preds = %entry
  %1 = load ptr, ptr %that.addr, align 8
  %2 = call ptr @__dynamic_cast(ptr %1, ptr @_ZTIN8facebook6hermes7tracing10SynthTrace6RecordE, ptr @_ZTIN8facebook6hermes7tracing10SynthTrace31SetExternalMemoryPressureRecordE, i64 0) #13
  %3 = icmp eq ptr %2, null
  br i1 %3, label %dynamic_cast.bad_cast, label %dynamic_cast.end

dynamic_cast.bad_cast:                            ; preds = %if.end
  call void @__cxa_bad_cast() #17
  unreachable

dynamic_cast.end:                                 ; preds = %if.end
  store ptr %2, ptr %thatCasted, align 8
  %objID_ = getelementptr inbounds %"struct.facebook::hermes::tracing::SynthTrace::SetExternalMemoryPressureRecord", ptr %this1, i32 0, i32 1
  %4 = load i64, ptr %objID_, align 8
  %5 = load ptr, ptr %thatCasted, align 8
  %objID_2 = getelementptr inbounds %"struct.facebook::hermes::tracing::SynthTrace::SetExternalMemoryPressureRecord", ptr %5, i32 0, i32 1
  %6 = load i64, ptr %objID_2, align 8
  %cmp = icmp eq i64 %4, %6
  br i1 %cmp, label %land.rhs, label %land.end

land.rhs:                                         ; preds = %dynamic_cast.end
  %amount_ = getelementptr inbounds %"struct.facebook::hermes::tracing::SynthTrace::SetExternalMemoryPressureRecord", ptr %this1, i32 0, i32 2
  %7 = load i64, ptr %amount_, align 8
  %8 = load ptr, ptr %thatCasted, align 8
  %amount_3 = getelementptr inbounds %"struct.facebook::hermes::tracing::SynthTrace::SetExternalMemoryPressureRecord", ptr %8, i32 0, i32 2
  %9 = load i64, ptr %amount_3, align 8
  %cmp4 = icmp eq i64 %7, %9
  br label %land.end

land.end:                                         ; preds = %land.rhs, %dynamic_cast.end
  %10 = phi i1 [ false, %dynamic_cast.end ], [ %cmp4, %land.rhs ]
  store i1 %10, ptr %retval, align 1
  br label %return

return:                                           ; preds = %land.end, %if.then
  %11 = load i1, ptr %retval, align 1
  ret i1 %11
}